target datalayout = "e-m:e-p270:32:32-p271:32:32-p272:64:64-i64:64-i128:128-f80:128-n8:16:32:64-S128"
target triple = "x86_64-pc-linux-gnu"

%struct.jpeg_compress_struct = type { ptr, ptr, ptr, ptr, i32, i32, ptr, i32, i32, i32, i32, double, i32, i32, i32, ptr, [4 x ptr], [4 x ptr], [4 x ptr], [16 x i8], [16 x i8], [16 x i8], i32, ptr, i32, i32, i32, i32, i32, i32, i32, i32, i32, i8, i8, i8, i16, i16, i32, i32, i32, i32, i32, i32, i32, [4 x ptr], i32, i32, i32, [10 x i32], i32, i32, i32, i32, ptr, ptr, ptr, ptr, ptr, ptr, ptr, ptr, ptr, ptr, i32 }
%struct.jpeg_error_mgr = type { ptr, ptr, ptr, ptr, ptr, i32, %union.anon, i32, i64, ptr, i32, ptr, i32, i32 }
%union.anon = type { [8 x i32], [48 x i8] }
%struct.jpeg_memory_mgr = type { ptr, ptr, ptr, ptr, ptr, ptr, ptr, ptr, ptr, ptr, ptr, i64, i64 }
%struct.gif_source_struct = type { %struct.cjpeg_source_struct, ptr, ptr, [260 x i8], i32, i32, i32, i32, i32, i32, i32, i32, i32, i32, i32, i32, i32, ptr, ptr, ptr, ptr, i32, ptr, i32, i32, i32, i32 }
%struct.cjpeg_source_struct = type { ptr, ptr, ptr, ptr, ptr, ptr, ptr, i32, i32 }

; Function Attrs: nounwind uwtable
define dso_local ptr @jinit_read_gif(ptr noundef %0) #0 {
  %2 = alloca ptr, align 8
  %3 = alloca ptr, align 8
  store ptr %0, ptr %2, align 8, !tbaa !4
  call void @llvm.lifetime.start.p0(i64 8, ptr %3) #3
  %4 = load ptr, ptr %2, align 8, !tbaa !4
  %5 = getelementptr inbounds nuw %struct.jpeg_compress_struct, ptr %4, i32 0, i32 12
  %6 = load i32, ptr %5, align 8, !tbaa !9
  %7 = icmp ne i32 %6, 8
  br i1 %7, label %8, label %27

8:                                                ; preds = %1
  %9 = load ptr, ptr %2, align 8, !tbaa !4
  %10 = getelementptr inbounds nuw %struct.jpeg_compress_struct, ptr %9, i32 0, i32 0
  %11 = load ptr, ptr %10, align 8, !tbaa !27
  %12 = getelementptr inbounds nuw %struct.jpeg_error_mgr, ptr %11, i32 0, i32 5
  store i32 15, ptr %12, align 8, !tbaa !28
  %13 = load ptr, ptr %2, align 8, !tbaa !4
  %14 = getelementptr inbounds nuw %struct.jpeg_compress_struct, ptr %13, i32 0, i32 12
  %15 = load i32, ptr %14, align 8, !tbaa !9
  %16 = load ptr, ptr %2, align 8, !tbaa !4
  %17 = getelementptr inbounds nuw %struct.jpeg_compress_struct, ptr %16, i32 0, i32 0
  %18 = load ptr, ptr %17, align 8, !tbaa !27
  %19 = getelementptr inbounds nuw %struct.jpeg_error_mgr, ptr %18, i32 0, i32 6
  %20 = getelementptr inbounds [8 x i32], ptr %19, i64 0, i64 0
  store i32 %15, ptr %20, align 4, !tbaa !32
  %21 = load ptr, ptr %2, align 8, !tbaa !4
  %22 = getelementptr inbounds nuw %struct.jpeg_compress_struct, ptr %21, i32 0, i32 0
  %23 = load ptr, ptr %22, align 8, !tbaa !27
  %24 = getelementptr inbounds nuw %struct.jpeg_error_mgr, ptr %23, i32 0, i32 0
  %25 = load ptr, ptr %24, align 8, !tbaa !33
  %26 = load ptr, ptr %2, align 8, !tbaa !4
  call void %25(ptr noundef %26)
  br label %27

27:                                               ; preds = %8, %1
  %28 = load ptr, ptr %2, align 8, !tbaa !4
  %29 = getelementptr inbounds nuw %struct.jpeg_compress_struct, ptr %28, i32 0, i32 1
  %30 = load ptr, ptr %29, align 8, !tbaa !34
  %31 = getelementptr inbounds nuw %struct.jpeg_memory_mgr, ptr %30, i32 0, i32 0
  %32 = load ptr, ptr %31, align 8, !tbaa !35
  %33 = load ptr, ptr %2, align 8, !tbaa !4
  %34 = call ptr %32(ptr noundef %33, i32 noundef 1, i64 noundef 456)
  store ptr %34, ptr %3, align 8, !tbaa !37
  %35 = load ptr, ptr %2, align 8, !tbaa !4
  %36 = load ptr, ptr %3, align 8, !tbaa !37
  %37 = getelementptr inbounds nuw %struct.gif_source_struct, ptr %36, i32 0, i32 1
  store ptr %35, ptr %37, align 8, !tbaa !38
  %38 = load ptr, ptr %3, align 8, !tbaa !37
  %39 = getelementptr inbounds nuw %struct.gif_source_struct, ptr %38, i32 0, i32 0
  %40 = getelementptr inbounds nuw %struct.cjpeg_source_struct, ptr %39, i32 0, i32 0
  store ptr @start_input_gif, ptr %40, align 8, !tbaa !46
  %41 = load ptr, ptr %3, align 8, !tbaa !37
  %42 = getelementptr inbounds nuw %struct.gif_source_struct, ptr %41, i32 0, i32 0
  %43 = getelementptr inbounds nuw %struct.cjpeg_source_struct, ptr %42, i32 0, i32 2
  store ptr @finish_input_gif, ptr %43, align 8, !tbaa !47
  %44 = load ptr, ptr %3, align 8, !tbaa !37
  %45 = getelementptr inbounds nuw %struct.gif_source_struct, ptr %44, i32 0, i32 0
  %46 = getelementptr inbounds nuw %struct.cjpeg_source_struct, ptr %45, i32 0, i32 8
  store i32 0, ptr %46, align 4, !tbaa !48
  %47 = load ptr, ptr %3, align 8, !tbaa !37
  call void @llvm.lifetime.end.p0(i64 8, ptr %3) #3
  ret ptr %47
}