; Function Attrs: nounwind uwtable
define dso_local noundef ptr @jinit_read_gif(ptr noundef %0) local_unnamed_addr #0 {
  %2 = getelementptr inbounds nuw i8, ptr %0, i64 72
  %3 = load i32, ptr %2, align 8, !tbaa !4
  %.not = icmp eq i32 %3, 8
  br i1 %.not, label %10, label %4

4:                                                ; preds = %1
  %5 = load ptr, ptr %0, align 8, !tbaa !25
  %6 = getelementptr inbounds nuw i8, ptr %5, i64 40
  store i32 15, ptr %6, align 8, !tbaa !26
  %7 = getelementptr inbounds nuw i8, ptr %5, i64 44
  store i32 %3, ptr %7, align 4, !tbaa !30
  %8 = load ptr, ptr %0, align 8, !tbaa !25
  %9 = load ptr, ptr %8, align 8, !tbaa !31
  tail call void %9(ptr noundef nonnull %0) #4
  br label %10

10:                                               ; preds = %4, %1
  %11 = getelementptr inbounds nuw i8, ptr %0, i64 8
  %12 = load ptr, ptr %11, align 8, !tbaa !32
  %13 = load ptr, ptr %12, align 8, !tbaa !33
  %14 = tail call ptr %13(ptr noundef nonnull %0, i32 noundef 1, i64 noundef 456) #4
  %15 = getelementptr inbounds nuw i8, ptr %14, i64 64
  store ptr %0, ptr %15, align 8, !tbaa !35
  store ptr @start_input_gif, ptr %14, align 8, !tbaa !44
  %16 = getelementptr inbounds nuw i8, ptr %14, i64 16
  store ptr @finish_input_gif, ptr %16, align 8, !tbaa !45
  %17 = getelementptr inbounds nuw i8, ptr %14, i64 60
  store i32 0, ptr %17, align 4, !tbaa !46
  ret ptr %14
}